Certificate:
    Data:
        Version: 3 (0x2)
        Serial Number:
            49:d0:cc:fe:b2:03:5e:99:00:00:00:00:00:00:0e:00
        Signature Algorithm: sha256WithRSAEncryption
        Issuer: C=CN, ST=GuangDong, L=ShenZhen, O=Huawei Technologies Co., Ltd, OU=OSS & Service Tools Dept, CN=OSS3.0 CA
        Validity
            Not Before: Mar 31 00:00:00 2017 GMT
            Not After : Mar 26 00:00:00 2037 GMT
        Subject: C=CN, ST=GuangDong, L=ShenZhen, O=Huawei Technologies Co., Ltd, OU=OSS & Service Tools Dept, OU=development, CN=10.57.65.225
        Subject Public Key Info:
            Public Key Algorithm: rsaEncryption
            RSA Public Key: (4096 bit)
                Modulus (4096 bit):
                    00:d1:f3:b6:1e:4d:40:d6:4e:d5:41:e6:34:b0:3f:
                    d1:97:19:5a:1b:c0:a0:91:80:33:43:50:ab:08:df:
                    6b:e9:43:b4:09:ff:c9:f3:71:cf:8c:c5:61:ec:64:
                    26:67:24:4d:93:31:5c:1a:bf:e1:fe:c5:fb:2a:dc:
                    36:26:a5:52:85:b9:4e:1c:42:18:da:d0:68:86:61:
                    dd:44:62:eb:b7:45:81:1e:3d:08:84:a1:16:06:d7:
                    4e:26:7b:9a:1a:19:db:eb:e8:22:25:b7:62:5c:7a:
                    d6:d8:3d:67:f1:a9:fe:bc:b9:af:f1:f6:95:88:19:
                    e0:89:d3:e1:05:c1:b1:c3:78:9a:99:5a:89:50:ea:
                    61:32:5a:9c:42:aa:2a:e9:81:a0:a7:7f:31:f6:fa:
                    ea:1f:6a:d7:c1:2a:71:d0:d4:91:eb:86:25:fb:de:
                    a7:ef:74:09:f9:5d:e1:33:23:35:36:67:74:60:05:
                    e6:01:4f:fb:ac:b5:bb:c8:be:4a:60:a8:e1:9e:da:
                    5f:63:bc:de:cc:08:20:0f:67:c0:17:22:62:43:35:
                    f1:63:32:4d:94:a0:c2:54:25:f4:78:ac:bc:8f:55:
                    7e:5c:30:21:0f:aa:34:39:55:9e:ab:99:1b:f1:00:
                    dc:97:47:d7:0f:74:2d:39:16:f1:44:d7:f2:7e:3e:
                    c0:fb:bd:41:d9:72:fa:52:1f:96:d3:3e:ad:99:3e:
                    09:ab:3d:20:3b:60:43:d3:51:89:7f:5e:3e:bc:38:
                    a0:23:34:f4:2d:1a:fe:fa:a8:39:d5:b6:28:a0:ae:
                    35:ad:54:40:75:a8:ae:84:46:7f:1b:b3:45:80:3f:
                    75:38:a7:12:ea:a5:96:7e:c6:47:12:f0:88:74:16:
                    2b:e4:ca:0f:9d:b2:bc:9b:b7:96:68:8c:be:b0:9b:
                    aa:bf:7f:5e:41:18:49:0e:51:da:e9:2d:6d:a7:a0:
                    20:94:6f:4a:7d:05:41:94:27:59:16:64:8c:8b:09:
                    60:c2:e7:12:72:1f:9e:66:52:08:1f:71:58:a2:c6:
                    90:13:31:7e:0a:4b:99:56:cc:3d:77:8c:31:19:11:
                    99:f5:89:60:3a:17:22:6a:a2:00:e1:57:52:83:1f:
                    55:23:f2:b3:9f:29:5c:5d:e9:00:69:f5:64:74:3c:
                    1e:9b:da:da:31:28:a5:f4:88:4f:2f:d1:e3:2d:d0:
                    bb:0e:bb:df:6a:5a:36:55:50:04:58:15:fa:d3:08:
                    af:ed:40:29:76:57:9e:52:eb:98:90:7d:45:fd:67:
                    22:07:42:c4:23:f5:e5:32:9a:82:4a:5c:49:ee:b4:
                    a6:28:81:76:b4:a6:e0:c6:4e:dd:ad:58:06:ca:b9:
                    53:08:33
                Exponent: 65537 (0x10001)
        X509v3 extensions:
            X509v3 Basic Constraints: 
                CA:FALSE
            X509v3 Key Usage: critical
                Digital Signature, Non Repudiation, Key Encipherment
            X509v3 Subject Key Identifier: 
                27:15:69:5B:D5:13:60:C4:5C:62:54:75:55:A1:1D:4D:57:27:03:1F
            X509v3 Authority Key Identifier: 
                keyid:D5:4E:82:08:70:16:63:3D:DF:87:25:0B:7D:2E:EB:83:21:6A:BA:5B
                DirName:/C=CN/ST=GuangDong/L=ShenZhen/O=Huawei Technologies Co., Ltd/OU=OSS & Service Tools Dept/CN=OSS3.0 CA
                serial:7D:FD:C5:D8:70:DA:6E:0F:00:00:00:00:00:00:00:00

            X509v3 Subject Alternative Name: 
                DNS:10.57.65.225, IP Address:10.57.65.225
    Signature Algorithm: sha256WithRSAEncryption
        38:1b:40:c9:3c:7f:63:a0:2d:64:59:2b:d9:4a:4b:db:c4:70:
        ca:04:f0:e4:61:d2:47:7e:66:2a:f7:2f:15:46:f5:9c:8b:0b:
        c0:97:f1:b4:e9:93:b0:d4:62:d5:22:a5:83:75:be:3a:9d:cc:
        79:42:ec:85:11:17:c5:a2:e0:c6:30:64:3f:e2:4a:c1:9c:bd:
        47:1d:8c:38:e1:2e:06:fe:08:c4:06:65:cb:31:49:a1:6c:5d:
        c5:f4:68:26:66:c8:b2:c6:40:24:01:db:de:0d:fe:1a:f3:10:
        07:9b:9c:82:bc:b4:32:6a:7a:19:d7:c1:1a:cb:88:ba:de:e3:
        15:0c:16:92:ed:61:f0:1e:ca:e3:52:0f:75:be:42:fc:4e:2e:
        3d:ca:8c:70:03:a9:03:c6:6b:9b:d6:7a:de:75:c0:dd:d4:d8:
        a6:03:92:5c:76:94:ab:22:dd:4e:a7:52:47:c3:79:46:4e:37:
        30:a8:4a:5f:4a:ae:3e:c4:cd:43:d0:fa:4b:40:60:98:b9:53:
        c8:46:3e:22:bc:63:39:30:1c:6f:c7:5e:2c:ce:fc:9f:24:c1:
        49:a4:6f:ca:b9:72:44:ee:67:f1:f9:59:6a:1a:09:a8:df:64:
        60:57:c0:88:36:c6:73:5c:fc:1a:00:d9:38:17:d8:85:84:c5:
        31:88:45:66:ed:f6:fd:98:24:4d:de:68:d9:a0:87:7a:3f:ec:
        62:ba:d9:16:7e:ef:67:88:bd:c6:b3:70:72:c9:af:21:45:37:
        b5:d1:84:b7:8b:1a:eb:5c:5f:07:a8:6b:d0:ab:01:56:87:e3:
        c5:a4:b8:cc:d7:d0:47:38:60:97:85:b5:42:74:12:9e:77:03:
        19:a7:77:fb:f9:f9:6f:cc:c6:ff:4d:be:65:28:17:a6:45:19:
        da:12:5f:15:de:77:06:96:43:0e:19:50:7f:82:aa:da:34:78:
        d8:ca:8b:8e:ba:1d:20:15:f7:89:15:c0:09:26:76:4d:a6:33:
        4a:ed:a1:5d:be:78:54:18:f3:62:f2:7f:a5:bd:22:db:b1:49:
        32:87:01:fc:a8:f3:8f:fd:3d:fd:9c:59:aa:b5:8a:d3:a4:49:
        19:95:ae:6c:24:e4:98:32:92:07:04:e6:4a:33:8c:af:8e:d7:
        05:64:3a:1e:c6:93:85:89:6b:9f:70:c4:f6:32:fa:bb:c3:53:
        9c:e2:73:ec:09:6a:d8:8f:23:a1:0f:f1:03:f4:cf:cf:8d:6c:
        00:37:bb:53:43:9a:7e:99:27:95:ef:05:52:11:d3:0e:a9:d6:
        e9:88:ab:c2:e9:57:09:95:e6:1c:01:5b:f2:a6:d4:fa:44:57:
        40:e6:eb:4c:9c:75:12:8b
-----BEGIN CERTIFICATE-----
MIIG+TCCBOGgAwIBAgIQSdDM/rIDXpkAAAAAAAAOADANBgkqhkiG9w0BAQsFADCB
kjELMAkGA1UEBhMCQ04xEjAQBgNVBAgTCUd1YW5nRG9uZzERMA8GA1UEBxMIU2hl
blpoZW4xJTAjBgNVBAoTHEh1YXdlaSBUZWNobm9sb2dpZXMgQ28uLCBMdGQxITAf
BgNVBAsUGE9TUyAmIFNlcnZpY2UgVG9vbHMgRGVwdDESMBAGA1UEAxMJT1NTMy4w
IENBMB4XDTE3MDMzMTAwMDAwMFoXDTM3MDMyNjAwMDAwMFowgasxCzAJBgNVBAYT
AkNOMRIwEAYDVQQIEwlHdWFuZ0RvbmcxETAPBgNVBAcTCFNoZW5aaGVuMSUwIwYD
VQQKExxIdWF3ZWkgVGVjaG5vbG9naWVzIENvLiwgTHRkMSEwHwYDVQQLFBhPU1Mg
JiBTZXJ2aWNlIFRvb2xzIERlcHQxFDASBgNVBAsTC2RldmVsb3BtZW50MRUwEwYD
VQQDEwwxMC41Ny42NS4yMjUwggIiMA0GCSqGSIb3DQEBAQUAA4ICDwAwggIKAoIC
AQDR87YeTUDWTtVB5jSwP9GXGVobwKCRgDNDUKsI32vpQ7QJ/8nzcc+MxWHsZCZn
JE2TMVwav+H+xfsq3DYmpVKFuU4cQhja0GiGYd1EYuu3RYEePQiEoRYG104me5oa
Gdvr6CIlt2JcetbYPWfxqf68ua/x9pWIGeCJ0+EFwbHDeJqZWolQ6mEyWpxCqirp
gaCnfzH2+uofatfBKnHQ1JHrhiX73qfvdAn5XeEzIzU2Z3RgBeYBT/ustbvIvkpg
qOGe2l9jvN7MCCAPZ8AXImJDNfFjMk2UoMJUJfR4rLyPVX5cMCEPqjQ5VZ6rmRvx
ANyXR9cPdC05FvFE1/J+PsD7vUHZcvpSH5bTPq2ZPgmrPSA7YEPTUYl/Xj68OKAj
NPQtGv76qDnVtiigrjWtVEB1qK6ERn8bs0WAP3U4pxLqpZZ+xkcS8Ih0Fivkyg+d
srybt5ZojL6wm6q/f15BGEkOUdrpLW2noCCUb0p9BUGUJ1kWZIyLCWDC5xJyH55m
UggfcViixpATMX4KS5lWzD13jDEZEZn1iWA6FyJqogDhV1KDH1Uj8rOfKVxd6QBp
9WR0PB6b2toxKKX0iE8v0eMt0LsOu99qWjZVUARYFfrTCK/tQCl2V55S65iQfUX9
ZyIHQsQj9eUymoJKXEnutKYogXa0puDGTt2tWAbKuVMIMwIDAQABo4IBLjCCASow
CQYDVR0TBAIwADAOBgNVHQ8BAf8EBAMCBeAwHQYDVR0OBBYEFCcVaVvVE2DEXGJU
dVWhHU1XJwMfMIHOBgNVHSMEgcYwgcOAFNVOgghwFmM934clC30u64MharpboYGY
pIGVMIGSMQswCQYDVQQGEwJDTjESMBAGA1UECBMJR3VhbmdEb25nMREwDwYDVQQH
EwhTaGVuWmhlbjElMCMGA1UEChMcSHVhd2VpIFRlY2hub2xvZ2llcyBDby4sIEx0
ZDEhMB8GA1UECxQYT1NTICYgU2VydmljZSBUb29scyBEZXB0MRIwEAYDVQQDEwlP
U1MzLjAgQ0GCEH39xdhw2m4PAAAAAAAAAAAwHQYDVR0RBBYwFIIMMTAuNTcuNjUu
MjI1hwQKOUHhMA0GCSqGSIb3DQEBCwUAA4ICAQA4G0DJPH9joC1kWSvZSkvbxHDK
BPDkYdJHfmYq9y8VRvWciwvAl/G06ZOw1GLVIqWDdb46ncx5QuyFERfFouDGMGQ/
4krBnL1HHYw44S4G/gjEBmXLMUmhbF3F9GgmZsiyxkAkAdveDf4a8xAHm5yCvLQy
anoZ18Eay4i63uMVDBaS7WHwHsrjUg91vkL8Ti49yoxwA6kDxmub1nredcDd1Nim
A5JcdpSrIt1Op1JHw3lGTjcwqEpfSq4+xM1D0PpLQGCYuVPIRj4ivGM5MBxvx14s
zvyfJMFJpG/KuXJE7mfx+VlqGgmo32RgV8CINsZzXPwaANk4F9iFhMUxiEVm7fb9
mCRN3mjZoId6P+xiutkWfu9niL3Gs3Byya8hRTe10YS3ixrrXF8HqGvQqwFWh+PF
pLjM19BHOGCXhbVCdBKedwMZp3f7+flvzMb/Tb5lKBemRRnaEl8V3ncGlkMOGVB/
gqraNHjYyouOuh0gFfeJFcAJJnZNpjNK7aFdvnhUGPNi8n+lvSLbsUkyhwH8qPOP
/T39nFmqtYrTpEkZla5sJOSYMpIHBOZKM4yvjtcFZDoexpOFiWufcMT2Mvq7w1Oc
4nPsCWrYjyOhD/ED9M/PjWwAN7tTQ5p+mSeV7wVSEdMOqdbpiKvC6VcJleYcAVvy
ptT6RFdA5utMnHUSiw==
-----END CERTIFICATE-----
